target datalayout = "e-m:e-p270:32:32-p271:32:32-p272:64:64-i64:64-i128:128-f80:128-n8:16:32:64-S128"
target triple = "x86_64-pc-linux-gnu"

@.str.973 = private unnamed_addr constant [16 x i8] c"SMPP Operations\00", align 1
@.str.974 = private unnamed_addr constant [15 x i8] c"SMPP Responses\00", align 1
@st_smpp_ops = internal global i32 -1, align 4
@st_smpp_res = internal global i32 -1, align 4
@.str.976 = private unnamed_addr constant [21 x i8] c"SMPP Response Status\00", align 1
@st_smpp_res_status = internal global i32 -1, align 4
@.str.977 = private unnamed_addr constant [14 x i8] c"SMPP Requests\00", align 1
@st_smpp_req = internal global i32 -1, align 4

; Function Attrs: null_pointer_is_valid sspstrong uwtable
define internal void @smpp_stats_tree_init(ptr noundef %0) #0 {
  %2 = alloca ptr, align 8
  store ptr %0, ptr %2, align 8
  %3 = load ptr, ptr %2, align 8
  %4 = call i32 @stats_tree_create_node(ptr noundef %3, ptr noundef @.str.973, i32 noundef 0, i32 noundef 0, i1 noundef zeroext true)
  store i32 %4, ptr @st_smpp_ops, align 4
  %5 = load ptr, ptr %2, align 8
  %6 = load i32, ptr @st_smpp_ops, align 4
  %7 = call i32 @stats_tree_create_node(ptr noundef %5, ptr noundef @.str.977, i32 noundef %6, i32 noundef 0, i1 noundef zeroext true)
  store i32 %7, ptr @st_smpp_req, align 4
  %8 = load ptr, ptr %2, align 8
  %9 = load i32, ptr @st_smpp_ops, align 4
  %10 = call i32 @stats_tree_create_node(ptr noundef %8, ptr noundef @.str.974, i32 noundef %9, i32 noundef 0, i1 noundef zeroext true)
  store i32 %10, ptr @st_smpp_res, align 4
  %11 = load ptr, ptr %2, align 8
  %12 = call i32 @stats_tree_create_node(ptr noundef %11, ptr noundef @.str.976, i32 noundef 0, i32 noundef 0, i1 noundef zeroext true)
  store i32 %12, ptr @st_smpp_res_status, align 4
  ret void
}