; Function Attrs: null_pointer_is_valid sspstrong uwtable
define internal void @smpp_stats_tree_init(ptr noundef %0) #0 {
  %2 = tail call i32 @stats_tree_create_node(ptr noundef %0, ptr noundef nonnull @.str.973, i32 noundef 0, i32 noundef 0, i1 noundef zeroext true)
  store i32 %2, ptr @st_smpp_ops, align 4
  %3 = tail call i32 @stats_tree_create_node(ptr noundef %0, ptr noundef nonnull @.str.977, i32 noundef %2, i32 noundef 0, i1 noundef zeroext true)
  store i32 %3, ptr @st_smpp_req, align 4
  %4 = load i32, ptr @st_smpp_ops, align 4
  %5 = tail call i32 @stats_tree_create_node(ptr noundef %0, ptr noundef nonnull @.str.974, i32 noundef %4, i32 noundef 0, i1 noundef zeroext true)
  store i32 %5, ptr @st_smpp_res, align 4
  %6 = tail call i32 @stats_tree_create_node(ptr noundef %0, ptr noundef nonnull @.str.976, i32 noundef 0, i32 noundef 0, i1 noundef zeroext true)
  store i32 %6, ptr @st_smpp_res_status, align 4
  ret void
}